; ModuleID = '57/1687.c'
source_filename = "57/1687.c"
target datalayout = "e-m:e-p270:32:32-p271:32:32-p272:64:64-i64:64-f80:128-n8:16:32:64-S128"
target triple = "x86_64-pc-linux-gnu"

@__const.main.b = private unnamed_addr constant [3 x i8] c"er\00", align 1
@__const.main.c = private unnamed_addr constant [3 x i8] c"ly\00", align 1
@__const.main.d = private unnamed_addr constant [4 x i8] c"ing\00", align 1
@.str = private unnamed_addr constant [3 x i8] c"%d\00", align 1
@.str.1 = private unnamed_addr constant [3 x i8] c"%s\00", align 1
@.str.2 = private unnamed_addr constant [4 x i8] c"%s\0A\00", align 1

; Function Attrs: noinline nounwind uwtable
define dso_local void @main() #0 {
  %1 = alloca [50 x [20 x i8]], align 16
  %2 = alloca [3 x i8], align 1
  %3 = alloca [3 x i8], align 1
  %4 = alloca [4 x i8], align 1
  %5 = alloca i32, align 4
  %6 = alloca i32, align 4
  %7 = alloca i32, align 4
  %8 = bitcast [3 x i8]* %2 to i8*
  call void @llvm.memcpy.p0i8.p0i8.i64(i8* align 1 %8, i8* align 1 getelementptr inbounds ([3 x i8], [3 x i8]* @__const.main.b, i32 0, i32 0), i64 3, i1 false)
  %9 = bitcast [3 x i8]* %3 to i8*
  call void @llvm.memcpy.p0i8.p0i8.i64(i8* align 1 %9, i8* align 1 getelementptr inbounds ([3 x i8], [3 x i8]* @__const.main.c, i32 0, i32 0), i64 3, i1 false)
  %10 = bitcast [4 x i8]* %4 to i8*
  call void @llvm.memcpy.p0i8.p0i8.i64(i8* align 1 %10, i8* align 1 getelementptr inbounds ([4 x i8], [4 x i8]* @__const.main.d, i32 0, i32 0), i64 4, i1 false)
  %11 = call i32 (i8*, ...) @__isoc99_scanf(i8* getelementptr inbounds ([3 x i8], [3 x i8]* @.str, i64 0, i64 0), i32* %5)
  store i32 0, i32* %6, align 4
  br label %12

12:                                               ; preds = %21, %0
  %13 = load i32, i32* %6, align 4
  %14 = load i32, i32* %5, align 4
  %15 = icmp slt i32 %13, %14
  br i1 %15, label %16, label %24

16:                                               ; preds = %12
  %17 = load i32, i32* %6, align 4
  %18 = sext i32 %17 to i64
  %19 = getelementptr inbounds [50 x [20 x i8]], [50 x [20 x i8]]* %1, i64 0, i64 %18
  %20 = call i32 (i8*, ...) @__isoc99_scanf(i8* getelementptr inbounds ([3 x i8], [3 x i8]* @.str.1, i64 0, i64 0), [20 x i8]* %19)
  br label %21

21:                                               ; preds = %16
  %22 = load i32, i32* %6, align 4
  %23 = add nsw i32 %22, 1
  store i32 %23, i32* %6, align 4
  br label %12

24:                                               ; preds = %12
  store i32 0, i32* %6, align 4
  br label %25

25:                                               ; preds = %109, %24
  %26 = load i32, i32* %6, align 4
  %27 = load i32, i32* %5, align 4
  %28 = icmp slt i32 %26, %27
  br i1 %28, label %29, label %112

29:                                               ; preds = %25
  store i32 0, i32* %7, align 4
  br label %30

30:                                               ; preds = %105, %29
  %31 = load i32, i32* %7, align 4
  %32 = icmp slt i32 %31, 20
  br i1 %32, label %33, label %108

33:                                               ; preds = %30
  %34 = load i32, i32* %6, align 4
  %35 = sext i32 %34 to i64
  %36 = getelementptr inbounds [50 x [20 x i8]], [50 x [20 x i8]]* %1, i64 0, i64 %35
  %37 = load i32, i32* %7, align 4
  %38 = sext i32 %37 to i64
  %39 = getelementptr inbounds [20 x i8], [20 x i8]* %36, i64 0, i64 %38
  %40 = load i8, i8* %39, align 1
  %41 = sext i8 %40 to i32
  %42 = icmp eq i32 %41, 0
  br i1 %42, label %43, label %104

43:                                               ; preds = %33
  %44 = load i32, i32* %6, align 4
  %45 = sext i32 %44 to i64
  %46 = getelementptr inbounds [50 x [20 x i8]], [50 x [20 x i8]]* %1, i64 0, i64 %45
  %47 = load i32, i32* %7, align 4
  %48 = sub nsw i32 %47, 2
  %49 = sext i32 %48 to i64
  %50 = getelementptr inbounds [20 x i8], [20 x i8]* %46, i64 0, i64 %49
  %51 = getelementptr inbounds [3 x i8], [3 x i8]* %2, i64 0, i64 0
  %52 = call i32 @strcmp(i8* %50, i8* %51) #4
  %53 = icmp eq i32 %52, 0
  br i1 %53, label %65, label %54

54:                                               ; preds = %43
  %55 = load i32, i32* %6, align 4
  %56 = sext i32 %55 to i64
  %57 = getelementptr inbounds [50 x [20 x i8]], [50 x [20 x i8]]* %1, i64 0, i64 %56
  %58 = load i32, i32* %7, align 4
  %59 = sub nsw i32 %58, 2
  %60 = sext i32 %59 to i64
  %61 = getelementptr inbounds [20 x i8], [20 x i8]* %57, i64 0, i64 %60
  %62 = getelementptr inbounds [3 x i8], [3 x i8]* %3, i64 0, i64 0
  %63 = call i32 @strcmp(i8* %61, i8* %62) #4
  %64 = icmp eq i32 %63, 0
  br i1 %64, label %65, label %78

65:                                               ; preds = %54, %43
  %66 = load i32, i32* %6, align 4
  %67 = sext i32 %66 to i64
  %68 = getelementptr inbounds [50 x [20 x i8]], [50 x [20 x i8]]* %1, i64 0, i64 %67
  %69 = load i32, i32* %7, align 4
  %70 = sub nsw i32 %69, 2
  %71 = sext i32 %70 to i64
  %72 = getelementptr inbounds [20 x i8], [20 x i8]* %68, i64 0, i64 %71
  store i8 0, i8* %72, align 1
  %73 = load i32, i32* %6, align 4
  %74 = sext i32 %73 to i64
  %75 = getelementptr inbounds [50 x [20 x i8]], [50 x [20 x i8]]* %1, i64 0, i64 %74
  %76 = getelementptr inbounds [20 x i8], [20 x i8]* %75, i64 0, i64 0
  %77 = call i32 (i8*, ...) @printf(i8* getelementptr inbounds ([4 x i8], [4 x i8]* @.str.2, i64 0, i64 0), i8* %76)
  br label %103

78:                                               ; preds = %54
  %79 = load i32, i32* %6, align 4
  %80 = sext i32 %79 to i64
  %81 = getelementptr inbounds [50 x [20 x i8]], [50 x [20 x i8]]* %1, i64 0, i64 %80
  %82 = load i32, i32* %7, align 4
  %83 = sub nsw i32 %82, 3
  %84 = sext i32 %83 to i64
  %85 = getelementptr inbounds [20 x i8], [20 x i8]* %81, i64 0, i64 %84
  %86 = getelementptr inbounds [4 x i8], [4 x i8]* %4, i64 0, i64 0
  %87 = call i32 @strcmp(i8* %85, i8* %86) #4
  %88 = icmp eq i32 %87, 0
  br i1 %88, label %89, label %102

89:                                               ; preds = %78
  %90 = load i32, i32* %6, align 4
  %91 = sext i32 %90 to i64
  %92 = getelementptr inbounds [50 x [20 x i8]], [50 x [20 x i8]]* %1, i64 0, i64 %91
  %93 = load i32, i32* %7, align 4
  %94 = sub nsw i32 %93, 3
  %95 = sext i32 %94 to i64
  %96 = getelementptr inbounds [20 x i8], [20 x i8]* %92, i64 0, i64 %95
  store i8 0, i8* %96, align 1
  %97 = load i32, i32* %6, align 4
  %98 = sext i32 %97 to i64
  %99 = getelementptr inbounds [50 x [20 x i8]], [50 x [20 x i8]]* %1, i64 0, i64 %98
  %100 = getelementptr inbounds [20 x i8], [20 x i8]* %99, i64 0, i64 0
  %101 = call i32 (i8*, ...) @printf(i8* getelementptr inbounds ([4 x i8], [4 x i8]* @.str.2, i64 0, i64 0), i8* %100)
  br label %102

102:                                              ; preds = %89, %78
  br label %103

103:                                              ; preds = %102, %65
  br label %104

104:                                              ; preds = %103, %33
  br label %105

105:                                              ; preds = %104
  %106 = load i32, i32* %7, align 4
  %107 = add nsw i32 %106, 1
  store i32 %107, i32* %7, align 4
  br label %30

108:                                              ; preds = %30
  br label %109

109:                                              ; preds = %108
  %110 = load i32, i32* %6, align 4
  %111 = add nsw i32 %110, 1
  store i32 %111, i32* %6, align 4
  br label %25

112:                                              ; preds = %25
  ret void
}

; Function Attrs: argmemonly nounwind willreturn
declare void @llvm.memcpy.p0i8.p0i8.i64(i8* noalias nocapture writeonly, i8* noalias nocapture readonly, i64, i1 immarg) #1

declare dso_local i32 @__isoc99_scanf(i8*, ...) #2

; Function Attrs: nounwind readonly
declare dso_local i32 @strcmp(i8*, i8*) #3

declare dso_local i32 @printf(i8*, ...) #2


!llvm.module.flags = !{!0}
!llvm.ident = !{!1}

!0 = !{i32 1, !"wchar_size", i32 4}
!1 = !{!"clang version 10.0.0-4ubuntu1 "}
